target datalayout = "e-m:e-p270:32:32-p271:32:32-p272:64:64-i64:64-i128:128-f80:128-n8:16:32:64-S128"
target triple = "x86_64-pc-linux-gnu"

%class.MultiNode.base = type { %class.Node.base }
%class.Node.base = type <{ ptr, ptr, ptr, i32, i32, i32, i32, i32, i32, i32 }>
%class.Node = type <{ ptr, ptr, ptr, i32, i32, i32, i32, i32, i32, i32, [4 x i8] }>
%class.BarrierSet = type { ptr, %class.FakeRttiSupport, ptr, ptr, ptr, ptr, ptr }
%class.FakeRttiSupport = type <{ i64, i32, [4 x i8] }>
%class.MemBarNode = type <{ %class.MultiNode.base, [4 x i8], ptr, i32, [4 x i8] }>

@g_assert_poison = external global ptr, align 8
@.str = private unnamed_addr constant [41 x i8] c"src/hotspot/share/opto/arraycopynode.cpp\00", align 1
@.str.4 = private unnamed_addr constant [31 x i8] c"guarantee(c != nullptr) failed\00", align 1
@.str.5 = private unnamed_addr constant [65 x i8] c"step_over_gc_barrier failed, there must be something to step to.\00", align 1
@_ZN10BarrierSet12_barrier_setE = external global ptr, align 8

; Function Attrs: mustprogress nounwind uwtable
define linkonce_odr hidden noundef ptr @_ZNK4Node12as_ArrayCopyEv(ptr noundef nonnull align 8 dereferenceable(52) %0) #1 comdat align 2 {
  %2 = alloca ptr, align 8
  store ptr %0, ptr %2, align 8
  %3 = load ptr, ptr %2, align 8
  ret ptr %3
}

; Function Attrs: mustprogress nounwind uwtable
define linkonce_odr hidden noundef zeroext i1 @_ZNK4Node12is_ArrayCopyEv(ptr noundef nonnull align 8 dereferenceable(52) %0) #1 comdat align 2 {
  %2 = alloca ptr, align 8
  store ptr %0, ptr %2, align 8
  %3 = load ptr, ptr %2, align 8
  %4 = getelementptr inbounds %class.Node, ptr %3, i32 0, i32 8
  %5 = load i32, ptr %4, align 4
  %6 = and i32 %5, 255
  %7 = icmp eq i32 %6, 135
  ret i1 %7
}

; Function Attrs: mustprogress nounwind uwtable
define linkonce_odr hidden noundef ptr @_ZNK4Node7as_CallEv(ptr noundef nonnull align 8 dereferenceable(52) %0) #1 comdat align 2 {
  %2 = alloca ptr, align 8
  store ptr %0, ptr %2, align 8
  %3 = load ptr, ptr %2, align 8
  ret ptr %3
}

; Function Attrs: mustprogress nounwind uwtable
define linkonce_odr hidden noundef zeroext i1 @_ZNK4Node7is_CallEv(ptr noundef nonnull align 8 dereferenceable(52) %0) #1 comdat align 2 {
  %2 = alloca ptr, align 8
  store ptr %0, ptr %2, align 8
  %3 = load ptr, ptr %2, align 8
  %4 = getelementptr inbounds %class.Node, ptr %3, i32 0, i32 8
  %5 = load i32, ptr %4, align 4
  %6 = and i32 %5, 7
  %7 = icmp eq i32 %6, 7
  ret i1 %7
}

; Function Attrs: mustprogress nounwind uwtable
define linkonce_odr hidden noundef zeroext i1 @_ZNK10MemBarNode27trailing_partial_array_copyEv(ptr noundef nonnull align 8 dereferenceable(68) %0) #1 comdat align 2 {
  %2 = alloca ptr, align 8
  store ptr %0, ptr %2, align 8
  %3 = load ptr, ptr %2, align 8
  %4 = getelementptr inbounds %class.MemBarNode, ptr %3, i32 0, i32 3
  %5 = load i32, ptr %4, align 8
  %6 = icmp eq i32 %5, 6
  ret i1 %6
}

; Function Attrs: mustprogress nounwind uwtable
define linkonce_odr hidden noundef ptr @_ZNK4Node13isa_ArrayCopyEv(ptr noundef nonnull align 8 dereferenceable(52) %0) #1 comdat align 2 {
  %2 = alloca ptr, align 8
  store ptr %0, ptr %2, align 8
  %3 = load ptr, ptr %2, align 8
  %4 = call noundef zeroext i1 @_ZNK4Node12is_ArrayCopyEv(ptr noundef nonnull align 8 dereferenceable(52) %3)
  br i1 %4, label %5, label %7

5:                                                ; preds = %1
  %6 = call noundef ptr @_ZNK4Node12as_ArrayCopyEv(ptr noundef nonnull align 8 dereferenceable(52) %3)
  br label %8

7:                                                ; preds = %1
  br label %8

8:                                                ; preds = %7, %5
  %9 = phi ptr [ %6, %5 ], [ null, %7 ]
  ret ptr %9
}

; Function Attrs: mustprogress nounwind uwtable
define hidden noundef zeroext i1 @_ZN13ArrayCopyNode17may_modify_helperEPK10TypeOopPtrP4NodeP11PhaseValuesRP8CallNode(ptr noundef %0, ptr noundef %1, ptr noundef %2, ptr noundef nonnull align 8 dereferenceable(8) %3) #1 align 2 {
  %5 = alloca i1, align 1
  %6 = alloca ptr, align 8
  %7 = alloca ptr, align 8
  %8 = alloca ptr, align 8
  %9 = alloca ptr, align 8
  store ptr %0, ptr %6, align 8
  store ptr %1, ptr %7, align 8
  store ptr %2, ptr %8, align 8
  store ptr %3, ptr %9, align 8
  %10 = load ptr, ptr %7, align 8
  %11 = icmp ne ptr %10, null
  br i1 %11, label %12, label %36

12:                                               ; preds = %4
  %13 = load ptr, ptr %7, align 8
  %14 = call noundef zeroext i1 @_ZNK4Node7is_CallEv(ptr noundef nonnull align 8 dereferenceable(52) %13)
  br i1 %14, label %15, label %36

15:                                               ; preds = %12
  %16 = load ptr, ptr %7, align 8
  %17 = call noundef ptr @_ZNK4Node7as_CallEv(ptr noundef nonnull align 8 dereferenceable(52) %16)
  %18 = load ptr, ptr %6, align 8
  %19 = load ptr, ptr %8, align 8
  %20 = load ptr, ptr %17, align 8
  %21 = getelementptr inbounds ptr, ptr %20, i64 28
  %22 = load ptr, ptr %21, align 8
  %23 = call noundef zeroext i1 %22(ptr noundef nonnull align 8 dereferenceable(128) %17, ptr noundef %18, ptr noundef %19)
  br i1 %23, label %24, label %36

24:                                               ; preds = %15
  %25 = load ptr, ptr %7, align 8
  %26 = call noundef ptr @_ZNK4Node7as_CallEv(ptr noundef nonnull align 8 dereferenceable(52) %25)
  %27 = call noundef zeroext i1 @_ZNK4Node12is_ArrayCopyEv(ptr noundef nonnull align 8 dereferenceable(52) %26)
  br i1 %27, label %32, label %28

28:                                               ; preds = %24
  %29 = load ptr, ptr %7, align 8
  %30 = call noundef ptr @_ZNK4Node7as_CallEv(ptr noundef nonnull align 8 dereferenceable(52) %29)
  %31 = call noundef zeroext i1 @_ZNK8CallNode24is_call_to_arraycopystubEv(ptr noundef nonnull align 8 dereferenceable(128) %30)
  br i1 %31, label %32, label %36

32:                                               ; preds = %28, %24
  %33 = load ptr, ptr %7, align 8
  %34 = call noundef ptr @_ZNK4Node7as_CallEv(ptr noundef nonnull align 8 dereferenceable(52) %33)
  %35 = load ptr, ptr %9, align 8
  store ptr %34, ptr %35, align 8
  store i1 true, ptr %5, align 1
  br label %37

36:                                               ; preds = %28, %15, %12, %4
  store i1 false, ptr %5, align 1
  br label %37

37:                                               ; preds = %36, %32
  %38 = load i1, ptr %5, align 1
  ret i1 %38
}

; Function Attrs: mustprogress nounwind uwtable
define linkonce_odr hidden noundef i32 @_ZNK4Node3reqEv(ptr noundef nonnull align 8 dereferenceable(52) %0) #1 comdat align 2 {
  %2 = alloca ptr, align 8
  store ptr %0, ptr %2, align 8
  %3 = load ptr, ptr %2, align 8
  %4 = getelementptr inbounds %class.Node, ptr %3, i32 0, i32 3
  %5 = load i32, ptr %4, align 8
  ret i32 %5
}

; Function Attrs: mustprogress nounwind uwtable
define linkonce_odr hidden noundef zeroext i1 @_ZNK4Node9is_RegionEv(ptr noundef nonnull align 8 dereferenceable(52) %0) #1 comdat align 2 {
  %2 = alloca ptr, align 8
  store ptr %0, ptr %2, align 8
  %3 = load ptr, ptr %2, align 8
  %4 = getelementptr inbounds %class.Node, ptr %3, i32 0, i32 8
  %5 = load i32, ptr %4, align 4
  %6 = and i32 %5, 63
  %7 = icmp eq i32 %6, 32
  ret i1 %7
}

; Function Attrs: mustprogress nounwind uwtable
define linkonce_odr hidden noundef ptr @_ZN10BarrierSet14barrier_set_c2Ev(ptr noundef nonnull align 8 dereferenceable(64) %0) #1 comdat align 2 {
  %2 = alloca ptr, align 8
  store ptr %0, ptr %2, align 8
  %3 = load ptr, ptr %2, align 8
  %4 = getelementptr inbounds %class.BarrierSet, ptr %3, i32 0, i32 4
  %5 = load ptr, ptr %4, align 8
  ret ptr %5
}

; Function Attrs: mustprogress nounwind uwtable
define linkonce_odr hidden noundef ptr @_ZN10BarrierSet11barrier_setEv() #1 comdat align 2 {
  %1 = load ptr, ptr @_ZN10BarrierSet12_barrier_setE, align 8
  ret ptr %1
}

; Function Attrs: mustprogress nounwind uwtable
define linkonce_odr hidden noundef ptr @_ZNK4Node2inEj(ptr noundef nonnull align 8 dereferenceable(52) %0, i32 noundef %1) #1 comdat align 2 {
  %3 = alloca ptr, align 8
  %4 = alloca i32, align 4
  store ptr %0, ptr %3, align 8
  store i32 %1, ptr %4, align 4
  %5 = load ptr, ptr %3, align 8
  %6 = getelementptr inbounds %class.Node, ptr %5, i32 0, i32 1
  %7 = load ptr, ptr %6, align 8
  %8 = load i32, ptr %4, align 4
  %9 = zext i32 %8 to i64
  %10 = getelementptr inbounds ptr, ptr %7, i64 %9
  %11 = load ptr, ptr %10, align 8
  ret ptr %11
}

; Function Attrs: mustprogress nounwind uwtable
define hidden noundef zeroext i1 @_ZN13ArrayCopyNode10may_modifyEPK10TypeOopPtrP10MemBarNodeP11PhaseValuesRPS_(ptr noundef %0, ptr noundef %1, ptr noundef %2, ptr noundef nonnull align 8 dereferenceable(8) %3) #1 align 2 {
  %5 = alloca i1, align 1
  %6 = alloca ptr, align 8
  %7 = alloca ptr, align 8
  %8 = alloca ptr, align 8
  %9 = alloca ptr, align 8
  %10 = alloca ptr, align 8
  %11 = alloca ptr, align 8
  %12 = alloca ptr, align 8
  %13 = alloca i32, align 4
  %14 = alloca ptr, align 8
  store ptr %0, ptr %6, align 8
  store ptr %1, ptr %7, align 8
  store ptr %2, ptr %8, align 8
  store ptr %3, ptr %9, align 8
  %15 = load ptr, ptr %7, align 8
  %16 = call noundef ptr @_ZNK4Node2inEj(ptr noundef nonnull align 8 dereferenceable(52) %15, i32 noundef 0)
  store ptr %16, ptr %10, align 8
  %17 = call noundef ptr @_ZN10BarrierSet11barrier_setEv()
  %18 = call noundef ptr @_ZN10BarrierSet14barrier_set_c2Ev(ptr noundef nonnull align 8 dereferenceable(64) %17)
  store ptr %18, ptr %11, align 8
  %19 = load ptr, ptr %11, align 8
  %20 = load ptr, ptr %10, align 8
  %21 = load ptr, ptr %19, align 8
  %22 = getelementptr inbounds ptr, ptr %21, i64 21
  %23 = load ptr, ptr %22, align 8
  %24 = call noundef ptr %23(ptr noundef nonnull align 8 dereferenceable(8) %19, ptr noundef %20)
  store ptr %24, ptr %10, align 8
  store ptr null, ptr %12, align 8
  br label %25

25:                                               ; preds = %4
  %26 = load ptr, ptr %10, align 8
  %27 = icmp ne ptr %26, null
  br i1 %27, label %30, label %28

28:                                               ; preds = %25
  %29 = load ptr, ptr @g_assert_poison, align 8
  store i8 88, ptr %29, align 1
  call void (ptr, i32, ptr, ptr, ...) @_Z15report_vm_errorPKciS0_S0_z(ptr noundef @.str, i32 noundef 698, ptr noundef @.str.4, ptr noundef @.str.5) #7
  unreachable

30:                                               ; preds = %25
  br label %31

31:                                               ; preds = %30
  %32 = load ptr, ptr %10, align 8
  %33 = call noundef zeroext i1 @_ZNK4Node9is_RegionEv(ptr noundef nonnull align 8 dereferenceable(52) %32)
  br i1 %33, label %34, label %64

34:                                               ; preds = %31
  store i32 1, ptr %13, align 4
  br label %35

35:                                               ; preds = %60, %34
  %36 = load i32, ptr %13, align 4
  %37 = load ptr, ptr %10, align 8
  %38 = call noundef i32 @_ZNK4Node3reqEv(ptr noundef nonnull align 8 dereferenceable(52) %37)
  %39 = icmp ult i32 %36, %38
  br i1 %39, label %40, label %63

40:                                               ; preds = %35
  %41 = load ptr, ptr %10, align 8
  %42 = load i32, ptr %13, align 4
  %43 = call noundef ptr @_ZNK4Node2inEj(ptr noundef nonnull align 8 dereferenceable(52) %41, i32 noundef %42)
  %44 = icmp ne ptr %43, null
  br i1 %44, label %45, label %59

45:                                               ; preds = %40
  %46 = load ptr, ptr %10, align 8
  %47 = load i32, ptr %13, align 4
  %48 = call noundef ptr @_ZNK4Node2inEj(ptr noundef nonnull align 8 dereferenceable(52) %46, i32 noundef %47)
  %49 = call noundef ptr @_ZNK4Node2inEj(ptr noundef nonnull align 8 dereferenceable(52) %48, i32 noundef 0)
  store ptr %49, ptr %14, align 8
  %50 = load ptr, ptr %6, align 8
  %51 = load ptr, ptr %14, align 8
  %52 = load ptr, ptr %8, align 8
  %53 = call noundef zeroext i1 @_ZN13ArrayCopyNode17may_modify_helperEPK10TypeOopPtrP4NodeP11PhaseValuesRP8CallNode(ptr noundef %50, ptr noundef %51, ptr noundef %52, ptr noundef nonnull align 8 dereferenceable(8) %12)
  br i1 %53, label %54, label %58

54:                                               ; preds = %45
  %55 = load ptr, ptr %12, align 8
  %56 = call noundef ptr @_ZNK4Node13isa_ArrayCopyEv(ptr noundef nonnull align 8 dereferenceable(52) %55)
  %57 = load ptr, ptr %9, align 8
  store ptr %56, ptr %57, align 8
  store i1 true, ptr %5, align 1
  br label %81

58:                                               ; preds = %45
  br label %59

59:                                               ; preds = %58, %40
  br label %60

60:                                               ; preds = %59
  %61 = load i32, ptr %13, align 4
  %62 = add i32 %61, 1
  store i32 %62, ptr %13, align 4
  br label %35, !llvm.loop !11

63:                                               ; preds = %35
  br label %80

64:                                               ; preds = %31
  %65 = load ptr, ptr %6, align 8
  %66 = load ptr, ptr %10, align 8
  %67 = call noundef ptr @_ZNK4Node2inEj(ptr noundef nonnull align 8 dereferenceable(52) %66, i32 noundef 0)
  %68 = load ptr, ptr %8, align 8
  %69 = call noundef zeroext i1 @_ZN13ArrayCopyNode17may_modify_helperEPK10TypeOopPtrP4NodeP11PhaseValuesRP8CallNode(ptr noundef %65, ptr noundef %67, ptr noundef %68, ptr noundef nonnull align 8 dereferenceable(8) %12)
  br i1 %69, label %70, label %74

70:                                               ; preds = %64
  %71 = load ptr, ptr %12, align 8
  %72 = call noundef ptr @_ZNK4Node13isa_ArrayCopyEv(ptr noundef nonnull align 8 dereferenceable(52) %71)
  %73 = load ptr, ptr %9, align 8
  store ptr %72, ptr %73, align 8
  store i1 true, ptr %5, align 1
  br label %81

74:                                               ; preds = %64
  %75 = load ptr, ptr %7, align 8
  %76 = call noundef zeroext i1 @_ZNK10MemBarNode27trailing_partial_array_copyEv(ptr noundef nonnull align 8 dereferenceable(68) %75)
  br i1 %76, label %77, label %78

77:                                               ; preds = %74
  store i1 true, ptr %5, align 1
  br label %81

78:                                               ; preds = %74
  br label %79

79:                                               ; preds = %78
  br label %80

80:                                               ; preds = %79, %63
  store i1 false, ptr %5, align 1
  br label %81

81:                                               ; preds = %80, %77, %70, %54
  %82 = load i1, ptr %5, align 1
  ret i1 %82
}