; Function Attrs: mustprogress nounwind uwtable
define hidden noundef zeroext i1 @_ZN13ArrayCopyNode10may_modifyEPK10TypeOopPtrP10MemBarNodeP11PhaseValuesRPS_(ptr noundef %0, ptr nocapture noundef readonly %1, ptr noundef %2, ptr nocapture noundef nonnull writeonly align 8 dereferenceable(8) %3) local_unnamed_addr #0 align 2 {
  %5 = getelementptr inbounds i8, ptr %1, i64 8
  %6 = load ptr, ptr %5, align 8
  %7 = load ptr, ptr %6, align 8
  %8 = load ptr, ptr @_ZN10BarrierSet12_barrier_setE, align 8
  %9 = getelementptr inbounds i8, ptr %8, i64 40
  %10 = load ptr, ptr %9, align 8
  %11 = load ptr, ptr %10, align 8
  %12 = getelementptr inbounds i8, ptr %11, i64 168
  %13 = load ptr, ptr %12, align 8
  %14 = tail call noundef ptr %13(ptr noundef nonnull align 8 dereferenceable(8) %10, ptr noundef %7) #10
  %.not = icmp eq ptr %14, null
  br i1 %.not, label %15, label %17

15:                                               ; preds = %4
  %16 = load ptr, ptr @g_assert_poison, align 8
  store i8 88, ptr %16, align 1
  tail call void (ptr, i32, ptr, ptr, ...) @_Z15report_vm_errorPKciS0_S0_z(ptr noundef nonnull @.str, i32 noundef 698, ptr noundef nonnull @.str.4, ptr noundef nonnull @.str.5) #11
  unreachable

17:                                               ; preds = %4
  %18 = getelementptr inbounds i8, ptr %14, i64 44
  %19 = load i32, ptr %18, align 4
  %20 = and i32 %19, 63
  %21 = icmp eq i32 %20, 32
  br i1 %21, label %.preheader, label %55

.preheader:                                       ; preds = %17
  %22 = getelementptr inbounds i8, ptr %14, i64 24
  %23 = load i32, ptr %22, align 8
  %24 = icmp ugt i32 %23, 1
  br i1 %24, label %.lr.ph, label %.loopexit

.lr.ph:                                           ; preds = %.preheader
  %25 = getelementptr inbounds i8, ptr %14, i64 8
  br label %26

26:                                               ; preds = %.lr.ph, %_ZN13ArrayCopyNode17may_modify_helperEPK10TypeOopPtrP4NodeP11PhaseValuesRP8CallNode.exit.thread
  %indvars.iv = phi i64 [ 1, %.lr.ph ], [ %indvars.iv.next, %_ZN13ArrayCopyNode17may_modify_helperEPK10TypeOopPtrP4NodeP11PhaseValuesRP8CallNode.exit.thread ]
  %27 = load ptr, ptr %25, align 8
  %28 = getelementptr inbounds ptr, ptr %27, i64 %indvars.iv
  %29 = load ptr, ptr %28, align 8
  %.not23 = icmp eq ptr %29, null
  br i1 %.not23, label %_ZN13ArrayCopyNode17may_modify_helperEPK10TypeOopPtrP4NodeP11PhaseValuesRP8CallNode.exit.thread, label %30

30:                                               ; preds = %26
  %31 = getelementptr inbounds i8, ptr %29, i64 8
  %32 = load ptr, ptr %31, align 8
  %33 = load ptr, ptr %32, align 8
  %.not.i = icmp eq ptr %33, null
  br i1 %.not.i, label %_ZN13ArrayCopyNode17may_modify_helperEPK10TypeOopPtrP4NodeP11PhaseValuesRP8CallNode.exit.thread, label %34

34:                                               ; preds = %30
  %35 = getelementptr inbounds i8, ptr %33, i64 44
  %36 = load i32, ptr %35, align 4
  %37 = and i32 %36, 7
  %38 = icmp eq i32 %37, 7
  br i1 %38, label %39, label %_ZN13ArrayCopyNode17may_modify_helperEPK10TypeOopPtrP4NodeP11PhaseValuesRP8CallNode.exit.thread

39:                                               ; preds = %34
  %40 = load ptr, ptr %33, align 8
  %41 = getelementptr inbounds i8, ptr %40, i64 224
  %42 = load ptr, ptr %41, align 8
  %43 = tail call noundef zeroext i1 %42(ptr noundef nonnull align 8 dereferenceable(128) %33, ptr noundef %0, ptr noundef %2) #10
  br i1 %43, label %44, label %_ZN13ArrayCopyNode17may_modify_helperEPK10TypeOopPtrP4NodeP11PhaseValuesRP8CallNode.exit.thread

44:                                               ; preds = %39
  %45 = load i32, ptr %35, align 4
  %46 = and i32 %45, 255
  %47 = icmp eq i32 %46, 135
  br i1 %47, label %_ZN13ArrayCopyNode17may_modify_helperEPK10TypeOopPtrP4NodeP11PhaseValuesRP8CallNode.exit, label %48

48:                                               ; preds = %44
  %49 = tail call noundef zeroext i1 @_ZNK8CallNode24is_call_to_arraycopystubEv(ptr noundef nonnull align 8 dereferenceable(128) %33) #10
  br i1 %49, label %._ZN13ArrayCopyNode17may_modify_helperEPK10TypeOopPtrP4NodeP11PhaseValuesRP8CallNode.exit_crit_edge, label %_ZN13ArrayCopyNode17may_modify_helperEPK10TypeOopPtrP4NodeP11PhaseValuesRP8CallNode.exit.thread

._ZN13ArrayCopyNode17may_modify_helperEPK10TypeOopPtrP4NodeP11PhaseValuesRP8CallNode.exit_crit_edge: ; preds = %48
  %.pre36 = load i32, ptr %35, align 4
  %.pre37 = and i32 %.pre36, 255
  %50 = icmp eq i32 %.pre37, 135
  %51 = select i1 %50, ptr %33, ptr null
  br label %_ZN13ArrayCopyNode17may_modify_helperEPK10TypeOopPtrP4NodeP11PhaseValuesRP8CallNode.exit

_ZN13ArrayCopyNode17may_modify_helperEPK10TypeOopPtrP4NodeP11PhaseValuesRP8CallNode.exit: ; preds = %44, %._ZN13ArrayCopyNode17may_modify_helperEPK10TypeOopPtrP4NodeP11PhaseValuesRP8CallNode.exit_crit_edge
  %.pre-phi = phi ptr [ %51, %._ZN13ArrayCopyNode17may_modify_helperEPK10TypeOopPtrP4NodeP11PhaseValuesRP8CallNode.exit_crit_edge ], [ %33, %44 ]
  store ptr %.pre-phi, ptr %3, align 8
  br label %81

_ZN13ArrayCopyNode17may_modify_helperEPK10TypeOopPtrP4NodeP11PhaseValuesRP8CallNode.exit.thread: ; preds = %30, %34, %39, %48, %26
  %indvars.iv.next = add nuw nsw i64 %indvars.iv, 1
  %52 = load i32, ptr %22, align 8
  %53 = zext i32 %52 to i64
  %54 = icmp ult i64 %indvars.iv.next, %53
  br i1 %54, label %26, label %.loopexit, !llvm.loop !13

55:                                               ; preds = %17
  %56 = getelementptr inbounds i8, ptr %14, i64 8
  %57 = load ptr, ptr %56, align 8
  %58 = load ptr, ptr %57, align 8
  %.not.i24 = icmp eq ptr %58, null
  br i1 %.not.i24, label %77, label %59

59:                                               ; preds = %55
  %60 = getelementptr inbounds i8, ptr %58, i64 44
  %61 = load i32, ptr %60, align 4
  %62 = and i32 %61, 7
  %63 = icmp eq i32 %62, 7
  br i1 %63, label %64, label %77

64:                                               ; preds = %59
  %65 = load ptr, ptr %58, align 8
  %66 = getelementptr inbounds i8, ptr %65, i64 224
  %67 = load ptr, ptr %66, align 8
  %68 = tail call noundef zeroext i1 %67(ptr noundef nonnull align 8 dereferenceable(128) %58, ptr noundef %0, ptr noundef %2) #10
  br i1 %68, label %69, label %77

69:                                               ; preds = %64
  %70 = load i32, ptr %60, align 4
  %71 = and i32 %70, 255
  %72 = icmp eq i32 %71, 135
  br i1 %72, label %_ZN13ArrayCopyNode17may_modify_helperEPK10TypeOopPtrP4NodeP11PhaseValuesRP8CallNode.exit26, label %73

73:                                               ; preds = %69
  %74 = tail call noundef zeroext i1 @_ZNK8CallNode24is_call_to_arraycopystubEv(ptr noundef nonnull align 8 dereferenceable(128) %58) #10
  br i1 %74, label %._ZN13ArrayCopyNode17may_modify_helperEPK10TypeOopPtrP4NodeP11PhaseValuesRP8CallNode.exit26_crit_edge, label %77

._ZN13ArrayCopyNode17may_modify_helperEPK10TypeOopPtrP4NodeP11PhaseValuesRP8CallNode.exit26_crit_edge: ; preds = %73
  %.pre = load i32, ptr %60, align 4
  %.pre38 = and i32 %.pre, 255
  %75 = icmp eq i32 %.pre38, 135
  %76 = select i1 %75, ptr %58, ptr null
  br label %_ZN13ArrayCopyNode17may_modify_helperEPK10TypeOopPtrP4NodeP11PhaseValuesRP8CallNode.exit26

_ZN13ArrayCopyNode17may_modify_helperEPK10TypeOopPtrP4NodeP11PhaseValuesRP8CallNode.exit26: ; preds = %._ZN13ArrayCopyNode17may_modify_helperEPK10TypeOopPtrP4NodeP11PhaseValuesRP8CallNode.exit26_crit_edge, %69
  %.pre-phi39 = phi ptr [ %76, %._ZN13ArrayCopyNode17may_modify_helperEPK10TypeOopPtrP4NodeP11PhaseValuesRP8CallNode.exit26_crit_edge ], [ %58, %69 ]
  store ptr %.pre-phi39, ptr %3, align 8
  br label %81

77:                                               ; preds = %73, %64, %59, %55
  %78 = getelementptr inbounds i8, ptr %1, i64 64
  %79 = load i32, ptr %78, align 8
  %80 = icmp eq i32 %79, 6
  br i1 %80, label %81, label %.loopexit

.loopexit:                                        ; preds = %_ZN13ArrayCopyNode17may_modify_helperEPK10TypeOopPtrP4NodeP11PhaseValuesRP8CallNode.exit.thread, %.preheader, %77
  br label %81

81:                                               ; preds = %77, %.loopexit, %_ZN13ArrayCopyNode17may_modify_helperEPK10TypeOopPtrP4NodeP11PhaseValuesRP8CallNode.exit26, %_ZN13ArrayCopyNode17may_modify_helperEPK10TypeOopPtrP4NodeP11PhaseValuesRP8CallNode.exit
  %.0 = phi i1 [ true, %_ZN13ArrayCopyNode17may_modify_helperEPK10TypeOopPtrP4NodeP11PhaseValuesRP8CallNode.exit ], [ false, %.loopexit ], [ true, %_ZN13ArrayCopyNode17may_modify_helperEPK10TypeOopPtrP4NodeP11PhaseValuesRP8CallNode.exit26 ], [ true, %77 ]
  ret i1 %.0
}